; Function Attrs: nounwind uwtable
define internal range(i32 -1, 1) i32 @H5T__vlen_disk_delete(ptr noundef %0, ptr noundef %1) #0 {
  %3 = alloca %struct.H5VL_blob_specific_args_t, align 8
  %4 = load i8, ptr @H5T_init_g, align 1, !tbaa !3, !range !7, !noundef !8
  %5 = trunc nuw i8 %4 to i1
  %6 = load i8, ptr @H5_libterm_g, align 1, !range !7
  %7 = trunc nuw i8 %6 to i1
  %8 = xor i1 %7, true
  %9 = select i1 %5, i1 true, i1 %8
  %10 = icmp ne ptr %1, null
  %or.cond = and i1 %10, %9
  br i1 %or.cond, label %11, label %22, !prof !56

11:                                               ; preds = %2
  %12 = load i32, ptr %1, align 1
  %.not = icmp eq i32 %12, 0
  br i1 %.not, label %22, label %13

13:                                               ; preds = %11
  %14 = getelementptr inbounds nuw i8, ptr %1, i64 4
  call void @llvm.lifetime.start.p0(i64 16, ptr nonnull %3) #13
  store i32 0, ptr %3, align 8, !tbaa !57
  %15 = call i32 @H5VL_blob_specific(ptr noundef %0, ptr noundef nonnull %14, ptr noundef nonnull %3) #13
  %16 = icmp sgt i32 %15, -1
  br i1 %16, label %21, label %17

17:                                               ; preds = %13
  %18 = load i64, ptr @H5E_DATATYPE_g, align 8, !tbaa !11
  %19 = load i64, ptr @H5E_CANTREMOVE_g, align 8, !tbaa !11
  %20 = call i32 (ptr, ptr, i32, i64, i64, ptr, ...) @H5E_printf_stack(ptr noundef nonnull @.str, ptr noundef nonnull @__func__.H5T__vlen_disk_delete, i32 noundef 921, i64 noundef %18, i64 noundef %19, ptr noundef nonnull @.str.29) #13
  br label %21

21:                                               ; preds = %13, %17
  %.2 = phi i32 [ -1, %17 ], [ 0, %13 ]
  call void @llvm.lifetime.end.p0(i64 16, ptr nonnull %3) #13
  br label %22

22:                                               ; preds = %21, %11, %2
  %.021 = phi i32 [ 0, %2 ], [ 0, %11 ], [ %.2, %21 ]
  ret i32 %.021
}